; Function Attrs: nounwind uwtable
define internal fastcc void @HIDAPI_DriverPS4_SetEnhancedReportHint(ptr noundef captures(none) %0, i32 noundef range(i32 0, 3) %1) unnamed_addr #0 {
  %3 = alloca %struct.DS4EffectsState_t, align 1
  switch i32 %1, label %HIDAPI_DriverPS4_SetEnhancedMode.exit [
    i32 2, label %81
    i32 1, label %4
  ]

4:                                                ; preds = %2
  %5 = getelementptr inbounds nuw i8, ptr %0, i64 30
  %6 = load i8, ptr %5, align 2, !range !5, !noundef !6
  %7 = trunc nuw i8 %6 to i1
  br i1 %7, label %HIDAPI_DriverPS4_SetEnhancedModeAvailable.exit6, label %8

8:                                                ; preds = %4
  store i8 1, ptr %5, align 2
  %9 = getelementptr inbounds nuw i8, ptr %0, i64 22
  %10 = load i8, ptr %9, align 2, !range !5, !noundef !6
  %11 = trunc nuw i8 %10 to i1
  br i1 %11, label %12, label %16

12:                                               ; preds = %8
  %13 = getelementptr inbounds nuw i8, ptr %0, i64 8
  %14 = load ptr, ptr %13, align 8
  tail call void @SDL_PrivateJoystickAddTouchpad(ptr noundef %14, i32 noundef 2) #9
  %15 = getelementptr inbounds nuw i8, ptr %0, i64 33
  store i8 1, ptr %15, align 1
  br label %16

16:                                               ; preds = %12, %8
  %17 = getelementptr inbounds nuw i8, ptr %0, i64 19
  %18 = load i8, ptr %17, align 1, !range !5, !noundef !6
  %19 = trunc nuw i8 %18 to i1
  br i1 %19, label %20, label %31

20:                                               ; preds = %16
  %21 = getelementptr inbounds nuw i8, ptr %0, i64 8
  %22 = load ptr, ptr %21, align 8
  %23 = getelementptr inbounds nuw i8, ptr %0, i64 31
  %24 = load i8, ptr %23, align 1
  %.rhs.trunc.i4 = zext i8 %24 to i16
  %25 = udiv i16 1000, %.rhs.trunc.i4
  %26 = uitofp nneg i16 %25 to float
  tail call void @SDL_PrivateJoystickAddSensor(ptr noundef %22, i32 noundef 2, float noundef %26) #9
  %27 = load ptr, ptr %21, align 8
  %28 = load i8, ptr %23, align 1
  %.rhs.trunc13.i5 = zext i8 %28 to i16
  %29 = udiv i16 1000, %.rhs.trunc13.i5
  %30 = uitofp nneg i16 %29 to float
  tail call void @SDL_PrivateJoystickAddSensor(ptr noundef %27, i32 noundef 1, float noundef %30) #9
  br label %31

31:                                               ; preds = %20, %16
  %32 = getelementptr inbounds nuw i8, ptr %0, i64 18
  %33 = load i8, ptr %32, align 2, !range !5, !noundef !6
  %34 = trunc nuw i8 %33 to i1
  br i1 %34, label %35, label %37

35:                                               ; preds = %31
  %36 = getelementptr inbounds nuw i8, ptr %0, i64 34
  store i8 1, ptr %36, align 2
  br label %37

37:                                               ; preds = %35, %31
  %38 = load ptr, ptr %0, align 8
  tail call void @HIDAPI_UpdateDeviceProperties(ptr noundef %38) #9
  br label %HIDAPI_DriverPS4_SetEnhancedModeAvailable.exit6

HIDAPI_DriverPS4_SetEnhancedModeAvailable.exit6:  ; preds = %4, %37
  %39 = getelementptr inbounds nuw i8, ptr %0, i64 29
  %40 = load i8, ptr %39, align 1, !range !5, !noundef !6
  %41 = trunc nuw i8 %40 to i1
  br i1 %41, label %HIDAPI_DriverPS4_SetEnhancedMode.exit, label %42

42:                                               ; preds = %HIDAPI_DriverPS4_SetEnhancedModeAvailable.exit6
  store i8 1, ptr %39, align 1
  call void @llvm.lifetime.start.p0(i64 19, ptr nonnull %3) #9
  call void @llvm.memset.p0.i64(ptr noundef nonnull align 1 dereferenceable(19) %3, i8 0, i64 19, i1 false)
  %43 = getelementptr inbounds nuw i8, ptr %0, i64 21
  %44 = load i8, ptr %43, align 1, !range !5, !noundef !6
  %45 = trunc nuw i8 %44 to i1
  br i1 %45, label %46, label %52

46:                                               ; preds = %42
  %47 = getelementptr inbounds nuw i8, ptr %0, i64 100
  %48 = load i8, ptr %47, align 4
  %49 = getelementptr inbounds nuw i8, ptr %3, i64 1
  store i8 %48, ptr %49, align 1
  %50 = getelementptr inbounds nuw i8, ptr %0, i64 101
  %51 = load i8, ptr %50, align 1
  store i8 %51, ptr %3, align 1
  br label %52

52:                                               ; preds = %46, %42
  %53 = getelementptr inbounds nuw i8, ptr %0, i64 20
  %54 = load i8, ptr %53, align 4, !range !5, !noundef !6
  %55 = trunc nuw i8 %54 to i1
  br i1 %55, label %56, label %HIDAPI_DriverPS4_UpdateEffects.exit

56:                                               ; preds = %52
  %57 = getelementptr inbounds nuw i8, ptr %0, i64 102
  %58 = load i8, ptr %57, align 2, !range !5, !noundef !6
  %59 = trunc nuw i8 %58 to i1
  br i1 %59, label %60, label %68

60:                                               ; preds = %56
  %61 = getelementptr inbounds nuw i8, ptr %0, i64 103
  %62 = load i8, ptr %61, align 1
  %63 = getelementptr inbounds nuw i8, ptr %3, i64 2
  store i8 %62, ptr %63, align 1
  %64 = getelementptr inbounds nuw i8, ptr %0, i64 104
  %65 = load i8, ptr %64, align 8
  %66 = getelementptr inbounds nuw i8, ptr %3, i64 3
  store i8 %65, ptr %66, align 1
  %67 = getelementptr inbounds nuw i8, ptr %0, i64 105
  br label %HIDAPI_DriverPS4_UpdateEffects.exit.sink.split

68:                                               ; preds = %56
  %69 = getelementptr inbounds nuw i8, ptr %0, i64 96
  %70 = load i32, ptr %69, align 8
  %71 = urem i32 %70, 7
  %.inv.i.i = icmp slt i32 %70, 0
  %narrow.i.i = select i1 %.inv.i.i, i32 0, i32 %71
  %.0.i.i = zext nneg i32 %narrow.i.i to i64
  %72 = getelementptr inbounds nuw [7 x [3 x i8]], ptr @SetLedsForPlayerIndex.colors, i64 0, i64 %.0.i.i
  %73 = load i8, ptr %72, align 1
  %74 = getelementptr inbounds nuw i8, ptr %3, i64 2
  store i8 %73, ptr %74, align 1
  %75 = getelementptr inbounds nuw i8, ptr %72, i64 1
  %76 = load i8, ptr %75, align 1
  %77 = getelementptr inbounds nuw i8, ptr %3, i64 3
  store i8 %76, ptr %77, align 1
  %78 = getelementptr inbounds nuw i8, ptr %72, i64 2
  br label %HIDAPI_DriverPS4_UpdateEffects.exit.sink.split

HIDAPI_DriverPS4_UpdateEffects.exit.sink.split:   ; preds = %68, %60
  %.sink.in = phi ptr [ %67, %60 ], [ %78, %68 ]
  %.sink = load i8, ptr %.sink.in, align 1
  %79 = getelementptr inbounds nuw i8, ptr %3, i64 4
  store i8 %.sink, ptr %79, align 1
  br label %HIDAPI_DriverPS4_UpdateEffects.exit

HIDAPI_DriverPS4_UpdateEffects.exit:              ; preds = %HIDAPI_DriverPS4_UpdateEffects.exit.sink.split, %52
  %80 = call fastcc zeroext i1 @HIDAPI_DriverPS4_InternalSendJoystickEffect(ptr noundef nonnull %0, ptr noundef nonnull %3, i32 noundef 19, i1 noundef zeroext false)
  call void @llvm.lifetime.end.p0(i64 19, ptr nonnull %3) #9
  br label %HIDAPI_DriverPS4_SetEnhancedMode.exit

81:                                               ; preds = %2
  %82 = getelementptr inbounds nuw i8, ptr %0, i64 30
  %83 = load i8, ptr %82, align 2, !range !5, !noundef !6
  %84 = trunc nuw i8 %83 to i1
  br i1 %84, label %HIDAPI_DriverPS4_SetEnhancedMode.exit, label %85

85:                                               ; preds = %81
  store i8 1, ptr %82, align 2
  %86 = getelementptr inbounds nuw i8, ptr %0, i64 22
  %87 = load i8, ptr %86, align 2, !range !5, !noundef !6
  %88 = trunc nuw i8 %87 to i1
  br i1 %88, label %89, label %93

89:                                               ; preds = %85
  %90 = getelementptr inbounds nuw i8, ptr %0, i64 8
  %91 = load ptr, ptr %90, align 8
  tail call void @SDL_PrivateJoystickAddTouchpad(ptr noundef %91, i32 noundef 2) #9
  %92 = getelementptr inbounds nuw i8, ptr %0, i64 33
  store i8 1, ptr %92, align 1
  br label %93

93:                                               ; preds = %89, %85
  %94 = getelementptr inbounds nuw i8, ptr %0, i64 19
  %95 = load i8, ptr %94, align 1, !range !5, !noundef !6
  %96 = trunc nuw i8 %95 to i1
  br i1 %96, label %97, label %108

97:                                               ; preds = %93
  %98 = getelementptr inbounds nuw i8, ptr %0, i64 8
  %99 = load ptr, ptr %98, align 8
  %100 = getelementptr inbounds nuw i8, ptr %0, i64 31
  %101 = load i8, ptr %100, align 1
  %.rhs.trunc.i = zext i8 %101 to i16
  %102 = udiv i16 1000, %.rhs.trunc.i
  %103 = uitofp nneg i16 %102 to float
  tail call void @SDL_PrivateJoystickAddSensor(ptr noundef %99, i32 noundef 2, float noundef %103) #9
  %104 = load ptr, ptr %98, align 8
  %105 = load i8, ptr %100, align 1
  %.rhs.trunc13.i = zext i8 %105 to i16
  %106 = udiv i16 1000, %.rhs.trunc13.i
  %107 = uitofp nneg i16 %106 to float
  tail call void @SDL_PrivateJoystickAddSensor(ptr noundef %104, i32 noundef 1, float noundef %107) #9
  br label %108

108:                                              ; preds = %97, %93
  %109 = getelementptr inbounds nuw i8, ptr %0, i64 18
  %110 = load i8, ptr %109, align 2, !range !5, !noundef !6
  %111 = trunc nuw i8 %110 to i1
  br i1 %111, label %112, label %114

112:                                              ; preds = %108
  %113 = getelementptr inbounds nuw i8, ptr %0, i64 34
  store i8 1, ptr %113, align 2
  br label %114

114:                                              ; preds = %112, %108
  %115 = load ptr, ptr %0, align 8
  tail call void @HIDAPI_UpdateDeviceProperties(ptr noundef %115) #9
  br label %HIDAPI_DriverPS4_SetEnhancedMode.exit

HIDAPI_DriverPS4_SetEnhancedMode.exit:            ; preds = %114, %81, %HIDAPI_DriverPS4_UpdateEffects.exit, %HIDAPI_DriverPS4_SetEnhancedModeAvailable.exit6, %2
  %116 = getelementptr inbounds nuw i8, ptr %0, i64 24
  store i32 %1, ptr %116, align 8
  ret void
}